; Function Attrs: mustprogress uwtable
define hidden noundef zeroext i1 @_ZNK3sls12basic_plugin8is_basicEP4expr(ptr noundef nonnull readonly align 8 captures(none) dereferenceable(56) %0, ptr noundef %1) local_unnamed_addr #3 align 2 {
  %.not = icmp eq ptr %1, null
  br i1 %.not, label %_ZNK11ast_manager11is_distinctEPK4expr.exit, label %3

3:                                                ; preds = %2
  %4 = getelementptr inbounds nuw i8, ptr %1, i64 4
  %5 = load i32, ptr %4, align 4
  %6 = and i32 %5, 65535
  %7 = icmp eq i32 %6, 0
  br i1 %7, label %8, label %_ZNK11ast_manager11is_distinctEPK4expr.exit

8:                                                ; preds = %3
  %9 = getelementptr inbounds nuw i8, ptr %0, i64 16
  %10 = getelementptr inbounds nuw i8, ptr %1, i64 16
  %11 = load ptr, ptr %10, align 8, !tbaa !20
  %12 = getelementptr inbounds nuw i8, ptr %11, i64 24
  %13 = load ptr, ptr %12, align 8, !tbaa !25
  %.not.i.i.i.i = icmp eq ptr %13, null
  br i1 %.not.i.i.i.i, label %_ZNK11ast_manager6is_iteEPK4expr.exit.thread, label %_ZNK11ast_manager6is_iteEPK4expr.exit

_ZNK11ast_manager6is_iteEPK4expr.exit:            ; preds = %8
  %14 = load i32, ptr %13, align 8, !tbaa !30
  %15 = icmp eq i32 %14, 0
  %16 = getelementptr inbounds nuw i8, ptr %13, i64 4
  %17 = load i32, ptr %16, align 4
  %18 = icmp eq i32 %17, 4
  %19 = select i1 %15, i1 %18, i1 false
  br i1 %19, label %20, label %_ZNK11ast_manager6is_iteEPK4expr.exit.thread

20:                                               ; preds = %_ZNK11ast_manager6is_iteEPK4expr.exit
  %21 = load ptr, ptr %9, align 8, !tbaa !3
  %22 = tail call noundef zeroext i1 @_ZNK11ast_manager7is_boolEPK4expr(ptr noundef nonnull align 8 dereferenceable(976) %21, ptr noundef nonnull %1)
  br i1 %22, label %._ZNK11ast_manager6is_iteEPK4expr.exit.thread_crit_edge, label %_ZNK11ast_manager11is_distinctEPK4expr.exit

._ZNK11ast_manager6is_iteEPK4expr.exit.thread_crit_edge: ; preds = %20
  %.pre = load i32, ptr %4, align 4
  br label %_ZNK11ast_manager6is_iteEPK4expr.exit.thread

_ZNK11ast_manager6is_iteEPK4expr.exit.thread:     ; preds = %._ZNK11ast_manager6is_iteEPK4expr.exit.thread_crit_edge, %8, %_ZNK11ast_manager6is_iteEPK4expr.exit
  %23 = phi i32 [ %.pre, %._ZNK11ast_manager6is_iteEPK4expr.exit.thread_crit_edge ], [ %5, %8 ], [ %5, %_ZNK11ast_manager6is_iteEPK4expr.exit ]
  %24 = and i32 %23, 65535
  %25 = icmp eq i32 %24, 0
  br i1 %25, label %26, label %_ZNK11ast_manager11is_distinctEPK4expr.exit

26:                                               ; preds = %_ZNK11ast_manager6is_iteEPK4expr.exit.thread
  %27 = load ptr, ptr %10, align 8, !tbaa !20
  %28 = getelementptr inbounds nuw i8, ptr %27, i64 24
  %29 = load ptr, ptr %28, align 8, !tbaa !25
  %.not.i.i.i.i11 = icmp eq ptr %29, null
  br i1 %.not.i.i.i.i11, label %_ZNK11ast_manager11is_distinctEPK4expr.exit, label %_ZNK11ast_manager6is_xorEPK4expr.exit

_ZNK11ast_manager6is_xorEPK4expr.exit:            ; preds = %26
  %30 = load i32, ptr %29, align 8, !tbaa !30
  %31 = icmp eq i32 %30, 0
  %32 = getelementptr inbounds nuw i8, ptr %29, i64 4
  %33 = load i32, ptr %32, align 4
  %34 = icmp eq i32 %33, 7
  %35 = select i1 %31, i1 %34, i1 false
  br i1 %35, label %36, label %39

36:                                               ; preds = %_ZNK11ast_manager6is_xorEPK4expr.exit
  %37 = getelementptr inbounds nuw i8, ptr %1, i64 24
  %38 = load i32, ptr %37, align 8, !tbaa !35
  %.not10 = icmp eq i32 %38, 2
  br i1 %.not10, label %39, label %_ZNK11ast_manager11is_distinctEPK4expr.exit

39:                                               ; preds = %_ZNK11ast_manager6is_xorEPK4expr.exit, %36
  %40 = load i32, ptr %29, align 8, !tbaa !30
  %41 = icmp eq i32 %40, 0
  %42 = getelementptr inbounds nuw i8, ptr %29, i64 4
  %43 = load i32, ptr %42, align 4
  %44 = icmp eq i32 %43, 3
  %45 = select i1 %41, i1 %44, i1 false
  br label %_ZNK11ast_manager11is_distinctEPK4expr.exit

_ZNK11ast_manager11is_distinctEPK4expr.exit:      ; preds = %26, %39, %_ZNK11ast_manager6is_iteEPK4expr.exit.thread, %36, %20, %2, %3
  %.0 = phi i1 [ false, %3 ], [ false, %2 ], [ true, %20 ], [ true, %36 ], [ %45, %39 ], [ false, %_ZNK11ast_manager6is_iteEPK4expr.exit.thread ], [ false, %26 ]
  ret i1 %.0
}